target datalayout = "e-m:e-p270:32:32-p271:32:32-p272:64:64-i64:64-i128:128-f80:128-n8:16:32:64-S128"
target triple = "x86_64-pc-linux-gnu"

%struct._packet_info = type { ptr, ptr, i32, i32, %struct.nstime_t, %struct.nstime_t, %struct.nstime_t, i8, ptr, ptr, ptr, ptr, %struct._address, %struct._address, %struct._address, %struct._address, %struct._address, %struct._address, i32, ptr, i8, [3 x i8], %struct.anon.1, i32, i32, i32, i32, ptr, i8, ptr, ptr, i16, i16, i32, i32, i16, i32, i32, ptr, ptr, ptr, i8, i8, i16, i16, i16, i32, i16, i16, ptr, ptr, ptr, ptr, ptr, i32, i32 }
%struct.nstime_t = type { i64, i32 }
%struct._address = type { i32, i32, ptr, ptr }
%struct.anon.1 = type { i8, [3 x i8] }

@hf_spp_data = internal global i32 0, align 4
@ett_btspp = internal global i32 0, align 4
@proto_btspp = internal global i32 0, align 4
@.str.192 = private unnamed_addr constant [1 x i8] zeroinitializer, align 1
@.str.195 = private unnamed_addr constant [5 x i8] c"Sent\00", align 1
@.str.196 = private unnamed_addr constant [5 x i8] c"Rcvd\00", align 1
@.str.199 = private unnamed_addr constant [4 x i8] c"SPP\00", align 1
@.str.200 = private unnamed_addr constant [10 x i8] c"%s \22%s%s\22\00", align 1
@.str.201 = private unnamed_addr constant [4 x i8] c"...\00", align 1

; Function Attrs: null_pointer_is_valid sspstrong uwtable
define internal i32 @dissect_btspp(ptr noundef %0, ptr noundef %1, ptr noundef %2, ptr noundef %3) #0 {
  %5 = alloca ptr, align 8
  %6 = alloca ptr, align 8
  %7 = alloca ptr, align 8
  %8 = alloca ptr, align 8
  %9 = alloca ptr, align 8
  %10 = alloca ptr, align 8
  %11 = alloca i8, align 1
  %12 = alloca i32, align 4
  %13 = alloca i32, align 4
  store ptr %0, ptr %5, align 8
  store ptr %1, ptr %6, align 8
  store ptr %2, ptr %7, align 8
  store ptr %3, ptr %8, align 8
  call void @llvm.lifetime.start.p0(i64 8, ptr %9) #7
  call void @llvm.lifetime.start.p0(i64 8, ptr %10) #7
  call void @llvm.lifetime.start.p0(i64 1, ptr %11) #7
  call void @llvm.lifetime.start.p0(i64 4, ptr %12) #7
  call void @llvm.lifetime.start.p0(i64 4, ptr %13) #7
  %14 = load ptr, ptr %5, align 8
  %15 = call i32 @tvb_captured_length(ptr noundef %14)
  store i32 %15, ptr %13, align 4
  %16 = load ptr, ptr %6, align 8
  %17 = getelementptr inbounds nuw %struct._packet_info, ptr %16, i32 0, i32 1
  %18 = load ptr, ptr %17, align 8
  call void @col_set_str(ptr noundef %18, i32 noundef 35, ptr noundef @.str.199)
  %19 = load ptr, ptr %7, align 8
  %20 = load i32, ptr @proto_btspp, align 4
  %21 = load ptr, ptr %5, align 8
  %22 = load ptr, ptr %5, align 8
  %23 = call i32 @tvb_captured_length(ptr noundef %22)
  %24 = call ptr @proto_tree_add_item(ptr noundef %19, i32 noundef %20, ptr noundef %21, i32 noundef 0, i32 noundef %23, i32 noundef 0)
  store ptr %24, ptr %9, align 8
  %25 = load ptr, ptr %9, align 8
  %26 = load i32, ptr @ett_btspp, align 4
  %27 = call ptr @proto_item_add_subtree(ptr noundef %25, i32 noundef %26)
  store ptr %27, ptr %10, align 8
  %28 = load i32, ptr %13, align 4
  %29 = icmp ult i32 %28, 60
  br i1 %29, label %30, label %32

30:                                               ; preds = %4
  %31 = load i32, ptr %13, align 4
  br label %33

32:                                               ; preds = %4
  br label %33

33:                                               ; preds = %32, %30
  %34 = phi i32 [ %31, %30 ], [ 60, %32 ]
  store i32 %34, ptr %13, align 4
  store i8 1, ptr %11, align 1
  store i32 0, ptr %12, align 4
  br label %35

35:                                               ; preds = %51, %33
  %36 = load i32, ptr %12, align 4
  %37 = load i32, ptr %13, align 4
  %38 = icmp ult i32 %36, %37
  br i1 %38, label %39, label %42

39:                                               ; preds = %35
  %40 = load i8, ptr %11, align 1, !range !6, !noundef !7
  %41 = trunc i8 %40 to i1
  br label %42

42:                                               ; preds = %39, %35
  %43 = phi i1 [ false, %35 ], [ %41, %39 ]
  br i1 %43, label %44, label %54

44:                                               ; preds = %42
  %45 = load ptr, ptr %5, align 8
  %46 = load i32, ptr %12, align 4
  %47 = call zeroext i8 @tvb_get_uint8(ptr noundef %45, i32 noundef %46)
  %48 = zext i8 %47 to i32
  %49 = icmp slt i32 %48, 128
  %50 = zext i1 %49 to i8
  store i8 %50, ptr %11, align 1
  br label %51

51:                                               ; preds = %44
  %52 = load i32, ptr %12, align 4
  %53 = add i32 %52, 1
  store i32 %53, ptr %12, align 4
  br label %35, !llvm.loop !10

54:                                               ; preds = %42
  %55 = load i8, ptr %11, align 1, !range !6, !noundef !7
  %56 = trunc i8 %55 to i1
  br i1 %56, label %57, label %77

57:                                               ; preds = %54
  %58 = load ptr, ptr %6, align 8
  %59 = getelementptr inbounds nuw %struct._packet_info, ptr %58, i32 0, i32 1
  %60 = load ptr, ptr %59, align 8
  %61 = load ptr, ptr %6, align 8
  %62 = getelementptr inbounds nuw %struct._packet_info, ptr %61, i32 0, i32 37
  %63 = load i32, ptr %62, align 4
  %64 = icmp eq i32 %63, 0
  %65 = select i1 %64, ptr @.str.195, ptr @.str.196
  %66 = load ptr, ptr %6, align 8
  %67 = getelementptr inbounds nuw %struct._packet_info, ptr %66, i32 0, i32 51
  %68 = load ptr, ptr %67, align 8
  %69 = load ptr, ptr %5, align 8
  %70 = load i32, ptr %13, align 4
  %71 = call ptr @tvb_format_text(ptr noundef %68, ptr noundef %69, i32 noundef 0, i32 noundef %70)
  %72 = load ptr, ptr %5, align 8
  %73 = call i32 @tvb_captured_length(ptr noundef %72)
  %74 = load i32, ptr %13, align 4
  %75 = icmp ugt i32 %73, %74
  %76 = select i1 %75, ptr @.str.201, ptr @.str.192
  call void (ptr, i32, ptr, ...) @col_add_fstr(ptr noundef %60, i32 noundef 25, ptr noundef @.str.200, ptr noundef %65, ptr noundef %71, ptr noundef %76)
  br label %77

77:                                               ; preds = %57, %54
  %78 = load ptr, ptr %10, align 8
  %79 = load i32, ptr @hf_spp_data, align 4
  %80 = load ptr, ptr %5, align 8
  %81 = load ptr, ptr %5, align 8
  %82 = call i32 @tvb_reported_length(ptr noundef %81)
  %83 = call ptr @proto_tree_add_item(ptr noundef %78, i32 noundef %79, ptr noundef %80, i32 noundef 0, i32 noundef %82, i32 noundef 0)
  %84 = load ptr, ptr %5, align 8
  %85 = call i32 @tvb_reported_length(ptr noundef %84)
  call void @llvm.lifetime.end.p0(i64 4, ptr %13) #7
  call void @llvm.lifetime.end.p0(i64 4, ptr %12) #7
  call void @llvm.lifetime.end.p0(i64 1, ptr %11) #7
  call void @llvm.lifetime.end.p0(i64 8, ptr %10) #7
  call void @llvm.lifetime.end.p0(i64 8, ptr %9) #7
  ret i32 %85
}