; Function Attrs: null_pointer_is_valid sspstrong uwtable
define internal i32 @dissect_btspp(ptr noundef %0, ptr noundef readonly captures(none) %1, ptr noundef %2, ptr readnone captures(none) %3) #0 {
  %5 = tail call i32 @tvb_captured_length(ptr noundef %0)
  %6 = getelementptr inbounds nuw i8, ptr %1, i64 8
  %7 = load ptr, ptr %6, align 8
  tail call void @col_set_str(ptr noundef %7, i32 noundef 35, ptr noundef nonnull @.str.199)
  %8 = load i32, ptr @proto_btspp, align 4
  %9 = tail call i32 @tvb_captured_length(ptr noundef %0)
  %10 = tail call ptr @proto_tree_add_item(ptr noundef %2, i32 noundef %8, ptr noundef %0, i32 noundef 0, i32 noundef %9, i32 noundef 0)
  %11 = load i32, ptr @ett_btspp, align 4
  %12 = tail call ptr @proto_item_add_subtree(ptr noundef %10, i32 noundef %11)
  %13 = tail call i32 @llvm.umin.i32(i32 %5, i32 60)
  %.not = icmp eq i32 %5, 0
  br i1 %.not, label %.critedge, label %.lr.ph

.lr.ph:                                           ; preds = %4, %.lr.ph
  %.026 = phi i32 [ %16, %.lr.ph ], [ 0, %4 ]
  %14 = tail call zeroext i8 @tvb_get_uint8(ptr noundef %0, i32 noundef %.026)
  %15 = icmp sgt i8 %14, -1
  %16 = add nuw nsw i32 %.026, 1
  %17 = icmp samesign ult i32 %16, %13
  %18 = select i1 %17, i1 %15, i1 false
  br i1 %18, label %.lr.ph, label %._crit_edge, !llvm.loop !12

._crit_edge:                                      ; preds = %.lr.ph
  br i1 %15, label %.critedge, label %30

.critedge:                                        ; preds = %4, %._crit_edge
  %19 = load ptr, ptr %6, align 8
  %20 = getelementptr inbounds nuw i8, ptr %1, i64 348
  %21 = load i32, ptr %20, align 4
  %22 = icmp eq i32 %21, 0
  %23 = select i1 %22, ptr @.str.195, ptr @.str.196
  %24 = getelementptr inbounds nuw i8, ptr %1, i64 408
  %25 = load ptr, ptr %24, align 8
  %26 = tail call ptr @tvb_format_text(ptr noundef %25, ptr noundef %0, i32 noundef 0, i32 noundef %13)
  %27 = tail call i32 @tvb_captured_length(ptr noundef %0)
  %28 = icmp ugt i32 %27, %13
  %29 = select i1 %28, ptr @.str.201, ptr @.str.192
  tail call void (ptr, i32, ptr, ...) @col_add_fstr(ptr noundef %19, i32 noundef 25, ptr noundef nonnull @.str.200, ptr noundef nonnull %23, ptr noundef %26, ptr noundef nonnull %29)
  br label %30

30:                                               ; preds = %.critedge, %._crit_edge
  %31 = load i32, ptr @hf_spp_data, align 4
  %32 = tail call i32 @tvb_reported_length(ptr noundef %0)
  %33 = tail call ptr @proto_tree_add_item(ptr noundef %12, i32 noundef %31, ptr noundef %0, i32 noundef 0, i32 noundef %32, i32 noundef 0)
  %34 = tail call i32 @tvb_reported_length(ptr noundef %0)
  ret i32 %34
}